; Function Attrs: nounwind uwtable
define dso_local void @end_MultiFuncCall(ptr noundef readonly captures(none) %0, ptr noundef readnone captures(none) %1) local_unnamed_addr #0 {
  %3 = getelementptr inbounds nuw i8, ptr %0, i64 16
  %4 = load ptr, ptr %3, align 8
  %5 = getelementptr inbounds nuw i8, ptr %4, i64 8
  %6 = load ptr, ptr %5, align 8
  %7 = load ptr, ptr %0, align 8
  %8 = ptrtoint ptr %7 to i64
  tail call void @UnregisterExprContextCallback(ptr noundef %6, ptr noundef nonnull @shutdown_MultiFuncCall, i64 noundef %8) #8
  %9 = load ptr, ptr %0, align 8
  %10 = getelementptr inbounds nuw i8, ptr %9, i64 24
  %11 = load ptr, ptr %10, align 8
  store ptr null, ptr %10, align 8
  %12 = getelementptr inbounds nuw i8, ptr %11, i64 32
  %13 = load ptr, ptr %12, align 8
  tail call void @MemoryContextDelete(ptr noundef %13) #8
  ret void
}